target datalayout = "e-m:e-p270:32:32-p271:32:32-p272:64:64-i64:64-i128:128-f80:128-n8:16:32:64-S128"
target triple = "x86_64-pc-linux-gnu"

%struct.SDL_Environment = type { ptr, ptr }

; Function Attrs: nounwind uwtable
define hidden ptr @SDL_GetEnvironmentVariable_REAL(ptr noundef %0, ptr noundef %1) #0 {
  %3 = alloca ptr, align 8
  %4 = alloca ptr, align 8
  %5 = alloca ptr, align 8
  %6 = alloca ptr, align 8
  %7 = alloca i32, align 4
  %8 = alloca ptr, align 8
  store ptr %0, ptr %4, align 8
  store ptr %1, ptr %5, align 8
  call void @llvm.lifetime.start.p0(i64 8, ptr %6) #7
  store ptr null, ptr %6, align 8
  %9 = load ptr, ptr %4, align 8
  %10 = icmp ne ptr %9, null
  br i1 %10, label %12, label %11

11:                                               ; preds = %2
  store ptr null, ptr %3, align 8
  store i32 1, ptr %7, align 4
  br label %39

12:                                               ; preds = %2
  %13 = load ptr, ptr %5, align 8
  %14 = icmp ne ptr %13, null
  br i1 %14, label %15, label %20

15:                                               ; preds = %12
  %16 = load ptr, ptr %5, align 8
  %17 = load i8, ptr %16, align 1
  %18 = sext i8 %17 to i32
  %19 = icmp eq i32 %18, 0
  br i1 %19, label %20, label %21

20:                                               ; preds = %15, %12
  store ptr null, ptr %3, align 8
  store i32 1, ptr %7, align 4
  br label %39

21:                                               ; preds = %15
  br label %22

22:                                               ; preds = %21
  %23 = load ptr, ptr %4, align 8
  %24 = getelementptr inbounds nuw %struct.SDL_Environment, ptr %23, i32 0, i32 0
  %25 = load ptr, ptr %24, align 8
  call void @SDL_LockMutex_REAL(ptr noundef %25)
  call void @llvm.lifetime.start.p0(i64 8, ptr %8) #7
  %26 = load ptr, ptr %4, align 8
  %27 = getelementptr inbounds nuw %struct.SDL_Environment, ptr %26, i32 0, i32 1
  %28 = load ptr, ptr %27, align 8
  %29 = load ptr, ptr %5, align 8
  %30 = call zeroext i1 @SDL_FindInHashTable(ptr noundef %28, ptr noundef %29, ptr noundef %8)
  br i1 %30, label %31, label %34

31:                                               ; preds = %22
  %32 = load ptr, ptr %8, align 8
  %33 = call ptr @SDL_GetPersistentString(ptr noundef %32)
  store ptr %33, ptr %6, align 8
  br label %34

34:                                               ; preds = %31, %22
  call void @llvm.lifetime.end.p0(i64 8, ptr %8) #7
  %35 = load ptr, ptr %4, align 8
  %36 = getelementptr inbounds nuw %struct.SDL_Environment, ptr %35, i32 0, i32 0
  %37 = load ptr, ptr %36, align 8
  call void @SDL_UnlockMutex_REAL(ptr noundef %37)
  %38 = load ptr, ptr %6, align 8
  store ptr %38, ptr %3, align 8
  store i32 1, ptr %7, align 4
  br label %39

39:                                               ; preds = %34, %20, %11
  call void @llvm.lifetime.end.p0(i64 8, ptr %6) #7
  %40 = load ptr, ptr %3, align 8
  ret ptr %40
}