; Function Attrs: nounwind uwtable
define hidden ptr @SDL_GetEnvironmentVariable_REAL(ptr noundef readonly captures(address_is_null) %0, ptr noundef %1) local_unnamed_addr #0 {
  %3 = alloca ptr, align 8
  %.not = icmp eq ptr %0, null
  %.not12 = icmp eq ptr %1, null
  %or.cond = or i1 %.not, %.not12
  br i1 %or.cond, label %17, label %4

4:                                                ; preds = %2
  %5 = load i8, ptr %1, align 1
  %6 = icmp eq i8 %5, 0
  br i1 %6, label %17, label %7

7:                                                ; preds = %4
  %8 = load ptr, ptr %0, align 8
  tail call void @SDL_LockMutex_REAL(ptr noundef %8) #11
  call void @llvm.lifetime.start.p0(i64 8, ptr nonnull %3) #11
  %9 = getelementptr inbounds nuw i8, ptr %0, i64 8
  %10 = load ptr, ptr %9, align 8
  %11 = call zeroext i1 @SDL_FindInHashTable(ptr noundef %10, ptr noundef nonnull %1, ptr noundef nonnull %3) #11
  br i1 %11, label %12, label %15

12:                                               ; preds = %7
  %13 = load ptr, ptr %3, align 8
  %14 = call ptr @SDL_GetPersistentString(ptr noundef %13) #11
  br label %15

15:                                               ; preds = %12, %7
  %.0 = phi ptr [ %14, %12 ], [ null, %7 ]
  call void @llvm.lifetime.end.p0(i64 8, ptr nonnull %3) #11
  %16 = load ptr, ptr %0, align 8
  call void @SDL_UnlockMutex_REAL(ptr noundef %16) #11
  br label %17

17:                                               ; preds = %4, %2, %15
  %.09 = phi ptr [ %.0, %15 ], [ null, %2 ], [ null, %4 ]
  ret ptr %.09
}